((lp0
F134.00890827178955
aF133.87397527694702
aF134.20108556747437
aF133.95984172821045
aF133.51006507873535
aF133.70224237442017
aF133.75130891799927
aF133.583664894104
aF133.54686498641968
aF134.26650762557983
aF143.58097314834595
aF134.04570817947388
aF134.00890827178955
aF133.3424210548401
aF134.54455137252808
aF133.92304182052612
aF133.10117721557617
aF132.92944431304932
aF133.94348621368408
aF132.70455598831177
aF133.7390422821045
aF133.90668630599976
aF133.92304182052612
aF132.55326747894287
aF133.66544246673584
aF132.5369119644165
aF132.97851085662842
aF132.32837915420532
aF134.14384126663208
aF133.2892656326294
aF134.3360185623169
aF134.45459604263306
aF134.31557416915894
aF133.92713069915771
aF132.97851085662842
aF133.44464302062988
aF133.77175331115723
aF133.47735404968262
aF133.10117721557617
aF133.17068815231323
aF133.22384357452393
aF133.42828750610352
aF133.20339918136597
aF132.97851085662842
aF133.94348621368408
aF133.52642059326172
aF133.15024375915527
aF133.2361102104187
aF133.20339918136597
aF132.97851085662842
aF133.05211067199707
aF132.96215534210205
aF132.99895524978638
aF133.94348621368408
aF134.02526378631592
aF132.41424560546875
aF133.80446434020996
aF132.97851085662842
aF132.96624422073364
aF134.1315746307373
aF133.70224237442017
aF133.46508741378784
aF133.37513208389282
aF133.66544246673584
aF133.41193199157715
aF133.10117721557617
aF133.3914875984192
aF133.37513208389282
aF134.40552949905396
aF134.3360185623169
aF134.25015211105347
aF133.42419862747192
aF133.3383321762085
aF133.94348621368408
aF133.01531076431274
aF133.51415395736694
aF133.11753273010254
aF133.27291011810303
aF133.27291011810303
aF133.51006507873535
aF133.3383321762085
aF133.49370956420898
aF133.5305094718933
aF132.8435778617859
aF134.52410697937012
aF133.46099853515625
aF133.0848217010498
aF133.3914875984192
aF133.56730937957764
aF134.47504043579102
aF133.37513208389282
aF133.51415395736694
aF134.3891739845276
aF133.06846618652344
aF133.41193199157715
aF133.32197666168213
aF133.49370956420898
aF133.94348621368408
aF133.85761976242065
aF134.14384126663208
aF132.91308879852295
aF133.01531076431274
aF133.06437730789185
aF132.91308879852295
aF133.06437730789185
aF132.27931261062622
aF133.40784311294556
aF132.7945113182068
aF133.41193199157715
aF133.44464302062988
aF132.96624422073364
aF133.46508741378784
aF133.99255275726318
aF132.99895524978638
aF133.56322050094604
aF132.99895524978638
aF133.49779844284058
aF133.583664894104
aF133.11753273010254
aF133.16659927368164
aF133.49370956420898
aF134.76535081863403
aF133.97619724273682
aF132.7904224395752
aF135.80801486968994
aF133.40784311294556
aF134.0293526649475
aF133.49370956420898
aF132.94988870620728
aF133.06846618652344
aF133.6368203163147
aF133.10117721557617
aF133.10117721557617
aF133.99255275726318
aF133.5305094718933
aF132.94579982757568
aF133.75539779663086
aF133.8371753692627
aF133.8371753692627
aF133.22384357452393
aF133.82081985473633
aF134.6794843673706
aF133.37513208389282
aF134.02526378631592
aF133.49779844284058
aF134.21335220336914
aF133.3424210548401
aF134.04570817947388
aF133.95984172821045
aF133.95575284957886
aF132.82722234725952
aF132.99895524978638
aF133.8903307914734
aF133.91077518463135
aF134.0784192085266
aF133.06846618652344
aF133.11753273010254
aF133.1338882446289
aF133.91077518463135
aF133.0316662788391
aF133.21975469589233
aF133.95984172821045
aF133.1338882446289
aF133.8412642478943
aF134.36872959136963
aF133.90668630599976
aF134.7285509109497
aF132.99895524978638
aF134.47095155715942
aF133.6327314376831
aF133.92304182052612
aF133.10117721557617
aF133.15024375915527
aF133.7349534034729
aF133.54686498641968
aF132.67593383789062
aF133.5305094718933
aF133.37513208389282
aF133.42828750610352
aF133.1870436668396
aF133.66544246673584
aF133.54686498641968
aF133.66544246673584
aF133.66953134536743
aF133.64908695220947
aF133.64908695220947
aF133.49370956420898
aF133.46099853515625
aF133.64908695220947
aF133.1379771232605
aF133.01531076431274
aF132.91308879852295
aF133.92304182052612
aF133.66544246673584
aF133.01531076431274
aF132.92944431304932
aF133.22384357452393
aF135.41548252105713
aF133.04802179336548
aF133.46508741378784
aF134.47504043579102
aF133.3914875984192
aF133.11753273010254
aF133.17068815231323
aF133.10117721557617
aF133.49779844284058
aF132.96215534210205
aF133.1338882446289
aF133.21975469589233
aF133.2401990890503
aF132.99895524978638
aF133.12162160873413
aF133.95575284957886
aF133.25655460357666
aF133.5305094718933
aF133.5305094718933
aF133.11753273010254
aF132.94579982757568
aF133.20339918136597
aF133.95984172821045
aF133.9393973350525
aF78.34291458129883
aF133.7881088256836
aF134.0293526649475
aF132.91308879852295
aF134.57317352294922
aF133.04802179336548
aF133.6327314376831
aF133.2401990890503
aF133.97210836410522
aF134.06206369400024
aF133.1338882446289
aF133.8412642478943
aF133.4405541419983
aF134.49139595031738
aF133.784019947052
aF133.94348621368408
aF134.02526378631592
aF134.04161930084229
aF133.47735404968262
aF133.41193199157715
aF133.1338882446289
aF133.27291011810303
aF134.16428565979004
aF133.71859788894653
aF133.04802179336548
aF134.21744108200073
aF134.57317352294922
aF134.0784192085266
aF134.3360185623169
aF133.22384357452393
aF133.95575284957886
aF134.04570817947388
aF134.00890827178955
aF133.6858868598938
aF133.6327314376831
aF134.0293526649475
aF133.25655460357666
aF133.5305094718933
aF133.32606554031372
aF133.1379771232605
aF133.9393973350525
aF133.86988639831543
aF133.32197666168213
aF133.92304182052612
aF133.90668630599976
aF133.21975469589233
aF132.98259973526
aF132.89673328399658
aF132.96624422073364
aF133.44464302062988
aF133.30562114715576
aF133.5305094718933
aF133.99255275726318
aF133.51006507873535
aF133.0316662788391
aF134.06206369400024
aF133.35877656936646
aF134.1806411743164
aF133.10117721557617
aF133.99255275726318
aF133.95984172821045
aF134.40144062042236
aF133.99255275726318
aF133.99255275726318
aF134.14793014526367
aF134.49139595031738
aF134.14793014526367
aF134.3360185623169
aF135.877525806427
aF133.71859788894653
aF132.99895524978638
aF133.70224237442017
aF134.04161930084229
aF133.2361102104187
aF133.85761976242065
aF133.90668630599976
aF133.64908695220947
aF133.51415395736694
aF133.95575284957886
a(lp1
F125.96608400344849
aF124.60857629776001
aF124.85390901565552
aF125.12377500534058
aF124.73124265670776
aF124.5104432106018
aF124.04431104660034
aF125.79435110092163
aF125.62670707702637
aF124.30599927902222
aF124.23648834228516
aF125.54084062576294
aF125.209641456604
aF127.08234786987305
aF124.40822124481201
aF124.97248649597168
aF123.75400066375732
aF124.26919937133789
aF125.79435110092163
aF124.7639536857605
aF124.26919937133789
aF124.6126651763916
aF125.36910772323608
aF125.96608400344849
aF124.80075359344482
aF123.70084524154663
aF124.73124265670776
aF124.7148871421814
aF124.76804256439209
aF124.6126651763916
aF126.06830596923828
aF124.47773218154907
aF124.55950975418091
aF126.22368335723877
aF125.94972848892212
aF126.70208215713501
aF126.2073278427124
aF126.9596815109253
aF124.92341995239258
aF124.30191040039062
aF124.80075359344482
aF127.09870338439941
aF125.810706615448
aF125.09106397628784
aF124.81710910797119
aF124.54315423965454
aF124.08111095428467
aF125.84750652313232
aF132.98259973526
aF125.19737482070923
aF124.47773218154907
aF124.90297555923462
aF126.27683877944946
aF124.81710910797119
aF124.09746646881104
aF123.97480010986328
aF123.65177869796753
aF124.69853162765503
aF124.54315423965454
aF124.81710910797119
aF124.62902069091797
aF124.52679872512817
aF133.1870436668396
aF125.07470846176147
aF124.64946508407593
aF125.98243951797485
aF123.83986711502075
aF124.76804256439209
aF124.40822124481201
aF124.78030920028687
aF125.38137435913086
aF124.32235479354858
aF125.27915239334106
aF125.38137435913086
aF125.9129285812378
aF124.22013282775879
aF125.29550790786743
aF124.81710910797119
aF124.73124265670776
aF124.73124265670776
aF125.03790855407715
aF126.3095498085022
aF124.87026453018188
aF124.55950975418091
aF125.89657306671143
aF125.63897371292114
aF124.64537620544434
aF124.54724311828613
aF124.73124265670776
aF124.8661756515503
aF125.43452978134155
aF124.69853162765503
aF124.44093227386475
aF126.27683877944946
aF127.42581367492676
aF123.95844459533691
aF125.45497417449951
aF125.48359632492065
aF125.58990716934204
aF124.62902069091797
aF125.6594181060791
aF124.6126651763916
aF124.39186573028564
aF123.77035617828369
aF124.23648834228516
aF125.64306259155273
aF125.810706615448
aF124.37142133712769
aF124.64537620544434
aF125.65532922744751
aF123.73764514923096
aF124.75168704986572
aF125.62261819839478
aF124.73124265670776
aF124.68217611312866
aF124.85390901565552
aF128.07594537734985
aF124.68217611312866
aF124.55950975418091
aF125.40181875228882
aF124.7148871421814
aF124.74759817123413
aF124.35506582260132
aF127.16821432113647
aF124.26919937133789
aF125.14013051986694
aF124.45728778839111
aF127.06599235534668
aF124.25284385681152
aF125.00519752502441
aF124.47364330291748
aF126.13781690597534
aF123.83986711502075
aF126.99648141860962
aF124.38777685165405
aF125.6594181060791
aF125.09106397628784
aF124.30191040039062
aF124.57586526870728
aF125.77799558639526
aF125.7616400718689
aF125.63897371292114
aF123.95844459533691
aF125.04199743270874
aF124.59630966186523
aF125.45088529586792
aF125.6594181060791
aF125.56946277618408
aF125.81479549407959
aF123.87257814407349
aF124.43684339523315
aF125.14421939849854
aF125.39772987365723
aF125.57355165481567
aF124.81710910797119
aF124.37142133712769
aF123.88893365859985
aF124.28555488586426
aF127.904212474823
aF123.6190676689148
aF124.52679872512817
aF124.78030920028687
aF124.87026453018188
aF108.13039541244507
aF124.2160439491272
aF125.69212913513184
aF124.04839992523193
aF124.83755350112915
aF124.90297555923462
aF123.77035617828369
aF123.70493412017822
aF124.01160001754761
aF123.89302253723145
aF123.70493412017822
aF124.75168704986572
aF123.72128963470459
aF124.74759817123413
aF124.85390901565552
aF123.9625334739685
aF124.78439807891846
aF126.19097232818604
aF124.73124265670776
aF126.44448280334473
aF124.42457675933838
aF124.25284385681152
aF124.64537620544434
aF124.01160001754761
aF123.79080057144165
aF124.57586526870728
aF126.10510587692261
aF126.42812728881836
aF125.60626268386841
aF124.69853162765503
aF125.34866333007812
aF124.42457675933838
aF132.2466015815735
aF124.33871030807495
aF124.83346462249756
aF125.96608400344849
aF124.75168704986572
aF124.23648834228516
aF125.60626268386841
aF125.07879734039307
aF125.09106397628784
aF124.76804256439209
aF125.94972848892212
aF126.15417242050171
aF125.98652839660645
aF124.81710910797119
aF125.09106397628784
aF126.08875036239624
aF126.01515054702759
aF127.42581367492676
aF125.24644136428833
aF126.10510587692261
aF126.2073278427124
aF125.23008584976196
aF125.12786388397217
aF124.54315423965454
aF132.96215534210205
aF124.80075359344482
aF24.745893478393555
aF126.00288391113281
aF126.17052793502808
aF127.63025760650635
aF124.6126651763916
aF125.81479549407959
aF133.01531076431274
aF125.00519752502441
aF124.35506582260132
aF125.63897371292114
aF124.78439807891846
aF124.78439807891846
aF125.62670707702637
aF126.87790393829346
aF124.38777685165405
aF126.01923942565918
aF124.18333292007446
aF124.6617317199707
aF125.79435110092163
aF124.09746646881104
aF123.80306720733643
aF124.39186573028564
aF124.76804256439209
aF125.62261819839478
aF124.74759817123413
aF124.67808723449707
aF125.62261819839478
aF124.37551021575928
aF124.57586526870728
aF126.62030458450317
aF126.06830596923828
aF125.05835294723511
aF124.75168704986572
aF126.19097232818604
aF124.7148871421814
aF125.67168474197388
aF124.93977546691895
aF124.57995414733887
aF124.97248649597168
aF125.60626268386841
aF124.59630966186523
aF125.40181875228882
aF125.45088529586792
aF124.08111095428467
aF125.72484016418457
aF125.41817426681519
aF125.65532922744751
aF124.1669774055481
aF125.04199743270874
aF124.30191040039062
aF124.43684339523315
aF126.05195045471191
aF125.53675174713135
aF125.77799558639526
aF124.33462142944336
aF124.81710910797119
aF125.62261819839478
aF133.35877656936646
aF124.49408769607544
aF125.46724081039429
aF124.7148871421814
aF125.810706615448
aF124.30599927902222
aF124.25284385681152
aF126.66937112808228
aF124.13017749786377
aF126.65301561355591
aF124.28555488586426
aF124.2160439491272
aF124.59630966186523
aF125.34866333007812
aF125.31595230102539
aF125.62261819839478
aF132.7413558959961
aF125.63897371292114
aF125.98243951797485
aF124.75168704986572
aF124.74759817123413
aF125.93337297439575
atp2
.