((lp0
F132.89673328399658
aF134.26650762557983
aF133.0316662788391
aF133.97619724273682
aF133.6327314376831
aF133.8903307914734
aF135.50543785095215
aF133.90668630599976
aF133.80446434020996
aF133.3792209625244
aF134.21744108200073
aF133.8371753692627
aF134.40552949905396
aF133.3383321762085
aF133.8903307914734
aF133.44464302062988
aF133.0848217010498
aF132.92944431304932
aF133.17068815231323
aF133.44464302062988
aF133.3383321762085
aF133.97619724273682
aF133.51006507873535
aF133.7349534034729
aF133.90668630599976
aF133.27291011810303
aF133.46099853515625
aF133.5795760154724
aF133.21975469589233
aF133.99255275726318
aF133.51415395736694
aF133.77175331115723
aF134.26650762557983
aF134.3891739845276
aF133.51415395736694
aF134.31966304779053
aF133.04802179336548
aF133.30562114715576
aF133.82081985473633
aF133.56322050094604
aF133.46099853515625
aF133.30562114715576
aF133.35877656936646
aF133.46099853515625
aF132.75771141052246
aF133.85353088378906
aF133.80446434020996
aF133.01531076431274
aF132.96215534210205
aF132.85993337631226
aF132.7904224395752
aF133.11753273010254
aF133.90668630599976
aF133.87397527694702
aF133.6327314376831
aF133.87397527694702
aF133.1870436668396
aF133.44464302062988
aF133.49779844284058
aF133.80446434020996
aF133.10117721557617
aF133.90668630599976
aF133.32606554031372
aF133.04802179336548
aF133.97619724273682
aF134.19699668884277
aF133.35877656936646
aF132.96624422073364
aF133.30562114715576
aF133.5305094718933
aF134.01299715042114
aF132.56962299346924
aF132.99895524978638
aF133.99255275726318
aF133.10117721557617
aF133.80446434020996
aF132.77406692504883
aF135.3296160697937
aF132.97851085662842
aF133.92713069915771
aF132.91308879852295
aF133.10117721557617
aF134.8880171775818
aF132.7904224395752
aF133.99255275726318
aF134.11521911621094
aF134.47504043579102
aF133.54686498641968
aF133.35877656936646
aF132.77406692504883
aF133.47735404968262
aF133.61637592315674
aF133.3424210548401
aF133.21975469589233
aF133.32606554031372
aF132.94579982757568
aF132.89673328399658
aF132.7904224395752
aF134.09477472305298
aF133.32197666168213
aF132.7413558959961
aF134.385085105896
aF129.51523065567017
aF133.06846618652344
aF134.81441736221313
aF125.84750652313232
aF133.39557647705078
aF132.91308879852295
aF133.4814429283142
aF134.2828631401062
aF134.2337965965271
aF133.32606554031372
aF133.8371753692627
aF123.37782382965088
aF120.35614252090454
aF133.65317583084106
aF133.8903307914734
aF133.51415395736694
aF133.3424210548401
aF133.39557647705078
aF133.47735404968262
aF133.8371753692627
aF132.91308879852295
aF121.35382890701294
aF122.19204902648926
aF118.93730163574219
aF120.3765869140625
aF123.54955673217773
aF120.95720767974854
aF121.14529609680176
aF133.51415395736694
aF120.01676559448242
aF119.34618949890137
aF121.61142826080322
aF133.51415395736694
aF117.57979393005371
aF133.25655460357666
aF126.41177177429199
aF123.717200756073
aF122.72360324859619
aF124.23648834228516
aF128.75878810882568
aF133.2892656326294
aF120.68734169006348
aF120.11898756027222
aF120.03312110900879
aF118.2830810546875
aF120.2743649482727
aF118.3362364768982
aF119.46476697921753
aF133.8903307914734
aF121.54191732406616
aF134.19699668884277
aF122.31471538543701
aF121.11258506774902
aF119.10494565963745
aF119.49747800827026
aF120.09854316711426
aF119.2766785621643
aF119.71009969711304
aF120.40929794311523
aF122.04076051712036
aF121.45605087280273
aF122.99755811691284
aF133.82081985473633
aF135.15788316726685
aF133.1338882446289
aF134.25015211105347
aF133.77175331115723
aF119.65694427490234
aF117.21997261047363
aF121.98760509490967
aF132.94988870620728
aF132.77406692504883
aF120.73640823364258
aF133.92713069915771
aF133.92713069915771
aF132.8435778617859
aF133.46099853515625
aF117.21997261047363
aF117.21997261047363
aF133.49370956420898
aF133.51006507873535
aF133.80446434020996
aF132.892644405365
aF133.2361102104187
aF132.692289352417
aF135.1742386817932
aF133.20748805999756
aF133.20339918136597
aF133.95984172821045
aF133.90668630599976
aF134.16428565979004
aF134.3360185623169
aF133.47735404968262
aF133.47735404968262
aF133.7349534034729
aF133.10117721557617
aF133.46099853515625
aF134.20108556747437
aF122.82991409301758
aF133.7349534034729
aF134.25015211105347
aF133.99255275726318
aF133.2892656326294
aF133.49370956420898
aF133.75130891799927
aF133.76766443252563
aF133.7349534034729
aF133.0848217010498
aF133.95984172821045
aF133.91077518463135
aF133.46099853515625
aF133.80446434020996
aF133.42419862747192
aF133.70224237442017
aF133.99255275726318
aF133.85353088378906
aF133.41193199157715
aF133.85761976242065
aF133.5305094718933
aF133.2361102104187
aF133.3424210548401
aF133.8371753692627
aF133.44464302062988
aF133.82081985473633
aF133.82081985473633
aF133.80446434020996
aF133.32197666168213
aF133.85761976242065
aF134.36872959136963
aF133.49370956420898
aF133.47735404968262
aF133.04802179336548
aF133.49779844284058
aF133.87397527694702
aF133.37513208389282
aF133.70224237442017
aF133.20339918136597
aF122.79311418533325
aF125.46724081039429
aF121.69729471206665
aF120.70369720458984
aF121.59098386764526
aF124.22013282775879
aF133.6858868598938
aF132.692289352417
aF133.49779844284058
aF132.7413558959961
aF133.05211067199707
aF133.21975469589233
aF132.86402225494385
aF133.51415395736694
aF133.54686498641968
aF133.37513208389282
aF133.94348621368408
aF132.38153457641602
aF133.41193199157715
aF132.88037776947021
aF132.96215534210205
aF133.0316662788391
aF132.82722234725952
aF121.33747339248657
aF132.5859785079956
aF124.19968843460083
aF133.40784311294556
aF133.8371753692627
aF133.92304182052612
aF123.0670690536499
aF132.82722234725952
aF133.51006507873535
aF133.11753273010254
aF133.61637592315674
aF133.60002040863037
aF133.6327314376831
aF133.27291011810303
aF123.1202244758606
aF133.35877656936646
aF134.00890827178955
aF134.31557416915894
aF133.583664894104
aF134.04570817947388
aF133.97210836410522
aF133.92713069915771
aF132.82722234725952
aF133.85761976242065
aF133.27291011810303
aF133.01531076431274
aF133.7390422821045
aF132.81086683273315
aF134.2828631401062
aF134.42188501358032
aF133.46099853515625
aF133.6368203163147
aF133.8371753692627
aF133.35877656936646
aF134.47504043579102
aF132.892644405365
aF126.13781690597534
aF133.47735404968262
a(lp1
F124.74759817123413
aF124.7148871421814
aF124.48999881744385
aF124.80075359344482
aF124.7639536857605
aF124.55950975418091
aF125.91701745986938
aF125.14421939849854
aF124.8661756515503
aF133.1870436668396
aF132.5369119644165
aF125.90066194534302
aF126.3586163520813
aF132.25886821746826
aF126.56714916229248
aF125.14421939849854
aF124.98884201049805
aF132.31202363967896
aF124.90297555923462
aF132.70455598831177
aF125.24644136428833
aF132.99895524978638
aF132.2956681251526
aF132.091224193573
aF126.03559494018555
aF131.9849133491516
aF125.81479549407959
aF125.07470846176147
aF126.29319429397583
aF124.6126651763916
aF132.20980167388916
aF133.17068815231323
aF125.03790855407715
aF125.14421939849854
aF125.12786388397217
aF133.17068815231323
aF125.009286403656
aF132.82722234725952
aF125.84341764450073
aF125.23008584976196
aF124.62902069091797
aF124.68217611312866
aF124.6126651763916
aF125.24644136428833
aF126.37906074523926
aF132.7904224395752
aF132.72091150283813
aF126.50172710418701
aF125.14421939849854
aF132.65548944473267
aF127.31950283050537
aF124.06066656112671
aF126.12146139144897
aF132.8435778617859
aF132.0380687713623
aF124.88662004470825
aF126.51808261871338
aF125.91701745986938
aF125.52039623260498
aF132.07486867904663
aF132.81086683273315
aF132.60233402252197
aF125.77799558639526
aF124.47773218154907
aF124.73124265670776
aF126.13781690597534
aF132.60233402252197
aF132.07077980041504
aF126.15417242050171
aF131.62509202957153
aF124.59630966186523
aF132.2425127029419
aF125.48768520355225
aF124.90297555923462
aF126.28910541534424
aF124.85390901565552
aF123.95844459533691
aF125.1115083694458
aF124.57995414733887
aF125.02155303955078
aF125.05835294723511
aF125.03790855407715
aF125.47132968902588
aF124.08111095428467
aF126.72252655029297
aF126.82065963745117
aF125.53675174713135
aF126.68572664260864
aF125.88021755218506
aF125.04199743270874
aF124.42457675933838
aF124.42457675933838
aF125.67577362060547
aF124.23239946365356
aF132.45104551315308
aF124.90297555923462
aF126.8574595451355
aF124.62902069091797
aF125.1605749130249
aF125.58990716934204
aF122.91169166564941
aF124.42457675933838
aF124.64537620544434
aF124.5635986328125
aF124.95204210281372
aF124.73124265670776
aF125.82706212997437
aF124.1138219833374
aF131.95220232009888
aF126.29319429397583
aF125.14421939849854
aF132.10349082946777
aF124.80075359344482
aF122.89533615112305
aF125.43861865997314
aF124.18333292007446
aF125.05835294723511
aF124.35506582260132
aF125.83115100860596
aF124.59222078323364
aF124.1138219833374
aF124.50635433197021
aF125.35275220870972
aF124.83346462249756
aF124.18333292007446
aF125.45088529586792
aF122.48235940933228
aF131.78046941757202
aF132.02171325683594
aF132.45104551315308
aF132.56962299346924
aF124.30599927902222
aF132.17300176620483
aF122.40058183670044
aF123.24289083480835
aF123.20609092712402
aF122.82582521438599
aF125.009286403656
aF132.44695663452148
aF123.39417934417725
aF132.17300176620483
aF132.1893572807312
aF122.50280380249023
aF125.38546323776245
aF132.091224193573
aF122.4700927734375
aF133.39557647705078
aF123.75400066375732
aF132.45104551315308
aF124.93977546691895
aF122.96484708786011
aF122.74404764175415
aF123.17337989807129
aF123.30831289291382
aF123.22244644165039
aF123.87666702270508
aF124.14653301239014
aF122.5191593170166
aF122.82582521438599
aF131.6946029663086
aF123.48004579544067
aF123.82351160049438
aF132.46740102767944
aF124.62902069091797
aF131.9849133491516
aF121.64413928985596
aF123.85622262954712
aF123.39417934417725
aF122.04076051712036
aF122.84626960754395
aF132.5328230857849
aF121.98760509490967
aF120.22120952606201
aF119.91454362869263
aF120.76911926269531
aF119.29303407669067
aF121.95489406585693
aF133.27291011810303
aF124.0647554397583
aF132.67184495925903
aF118.1317925453186
aF118.57339143753052
aF121.26796245574951
aF122.28200435638428
aF122.79311418533325
aF125.5571961402893
aF132.6350450515747
aF132.1443796157837
aF124.23648834228516
aF124.45728778839111
aF122.40058183670044
aF124.01160001754761
aF122.94849157333374
aF124.40413236618042
aF132.62277841567993
aF124.13017749786377
aF132.05442428588867
aF132.1402907371521
aF124.47773218154907
aF132.05442428588867
aF132.20980167388916
aF125.41817426681519
aF123.80715608596802
aF132.56962299346924
aF132.85993337631226
aF124.08111095428467
aF123.27560186386108
aF125.04199743270874
aF123.18564653396606
aF123.59862327575684
aF132.76180028915405
aF126.84110403060913
aF123.78671169281006
aF124.59630966186523
aF123.39417934417725
aF123.27151298522949
aF125.45088529586792
aF126.48128271102905
aF123.13657999038696
aF124.62902069091797
aF125.54084062576294
aF123.90937805175781
aF124.33462142944336
aF123.86031150817871
aF133.5795760154724
aF124.44093227386475
aF126.73888206481934
aF123.65177869796753
aF124.59630966186523
aF126.07239484786987
aF124.68217611312866
aF123.82351160049438
aF125.09515285491943
aF133.61637592315674
aF124.13426637649536
aF132.65548944473267
aF131.95220232009888
aF125.45088529586792
aF132.10349082946777
aF124.6658205986023
aF133.7390422821045
aF124.1138219833374
aF124.28555488586426
aF126.42812728881836
aF132.0871353149414
aF131.9358468055725
aF125.96608400344849
aF124.26919937133789
aF124.90297555923462
aF124.28555488586426
aF125.34866333007812
aF123.34511280059814
aF124.13426637649536
aF125.43452978134155
aF125.74119567871094
aF126.86154842376709
aF123.94208908081055
aF124.6658205986023
aF124.62902069091797
aF124.75168704986572
aF132.2956681251526
aF123.77444505691528
aF124.32235479354858
aF126.7061710357666
aF125.27915239334106
aF132.65548944473267
aF133.2401990890503
aF125.810706615448
aF125.94972848892212
aF123.9625334739685
aF125.48359632492065
aF123.37782382965088
aF132.7904224395752
aF124.31826591491699
aF125.2137303352356
aF123.30831289291382
aF125.07470846176147
aF124.33871030807495
aF128.19452285766602
aF123.27151298522949
aF125.05835294723511
aF125.17693042755127
aF124.80075359344482
aF124.7148871421814
aF124.83755350112915
aF132.2425127029419
aF132.62277841567993
aF132.15664625167847
aF126.59986019134521
aF125.00519752502441
aF132.5859785079956
aF132.65140056610107
aF131.7968249320984
aF125.60626268386841
aF124.73533153533936
aF124.37142133712769
aF126.46492719650269
aF125.05835294723511
aF123.68857860565186
aF123.41053485870361
atp2
.