((lp0
F134.19699668884277
aF134.11113023757935
aF133.30562114715576
aF133.7390422821045
aF135.57085990905762
aF133.8903307914734
aF133.04802179336548
aF133.80446434020996
aF133.04802179336548
aF133.70224237442017
aF126.2563943862915
aF132.82722234725952
aF135.24374961853027
aF132.5900673866272
aF134.66312885284424
aF133.40784311294556
aF133.95575284957886
aF134.20108556747437
aF134.3360185623169
aF135.60357093811035
aF134.31966304779053
aF134.60997343063354
aF134.3891739845276
aF134.35237407684326
aF135.1783275604248
aF134.09477472305298
aF133.7349534034729
aF134.1806411743164
aF133.7349534034729
aF134.6794843673706
aF133.94348621368408
aF134.5772624015808
aF132.4346899986267
aF124.95613098144531
aF133.95984172821045
aF132.65548944473267
aF133.3914875984192
aF134.64268445968628
aF134.71219539642334
aF133.42828750610352
aF133.71859788894653
aF133.80446434020996
aF134.71219539642334
aF135.05566120147705
aF126.77568197250366
aF134.54046249389648
aF125.57355165481567
aF133.87397527694702
aF134.47504043579102
aF133.3792209625244
aF135.24374961853027
aF138.89920711517334
aF137.95467615127563
aF134.96979475021362
aF135.14561653137207
aF133.27291011810303
aF132.92944431304932
aF134.8307728767395
aF134.55681800842285
aF132.6391339302063
aF132.46331214904785
aF132.99895524978638
aF133.77175331115723
aF135.1742386817932
aF139.00142908096313
aF134.04570817947388
aF133.87397527694702
aF133.8371753692627
aF133.44464302062988
aF137.9178762435913
aF133.77175331115723
aF132.7945113182068
aF133.32606554031372
aF133.7881088256836
aF136.29459142684937
aF135.14152765274048
aF136.99787855148315
aF138.36356401443481
aF133.1870436668396
aF133.11753273010254
aF132.50420093536377
aF133.7349534034729
aF133.35877656936646
aF134.16428565979004
aF134.81850624084473
aF143.38879585266113
aF143.2007074356079
aF142.43199825286865
aF136.39272451400757
aF134.4873070716858
aF133.5305094718933
aF132.72500038146973
aF131.7968249320984
aF125.63897371292114
aF129.20856475830078
aF135.10881662368774
aF132.0871353149414
aF133.3424210548401
aF134.0784192085266
aF133.90668630599976
aF132.72091150283813
aF132.52055644989014
aF132.82722234725952
aF133.27291011810303
aF132.98259973526
aF132.7945113182068
aF134.14384126663208
aF133.47735404968262
aF133.06437730789185
aF132.36517906188965
aF132.85993337631226
aF136.7198348045349
aF134.20108556747437
aF132.88037776947021
aF133.3383321762085
aF132.82722234725952
aF135.9306812286377
aF132.6350450515747
aF132.85993337631226
aF134.96979475021362
aF133.39557647705078
aF127.94101238250732
aF132.36109018325806
aF131.16304874420166
aF131.76411390304565
aF133.37513208389282
aF133.97210836410522
aF132.97851085662842
aF136.25779151916504
aF133.6817979812622
aF134.0784192085266
aF134.02526378631592
aF136.4295244216919
aF132.41424560546875
aF127.95736789703369
aF119.58743333816528
aF127.45852470397949
aF130.5456280708313
aF134.49139595031738
aF135.076105594635
aF134.54046249389648
aF144.14523839950562
aF138.14685344696045
aF135.52179336547852
aF142.63644218444824
aF141.14400148391724
aF134.16428565979004
aF134.60997343063354
aF135.9838366508484
aF136.1719250679016
aF135.677170753479
aF136.80570125579834
aF134.79806184768677
aF134.29921865463257
aF134.84712839126587
aF135.9838366508484
aF135.74259281158447
aF134.184730052948
aF134.21335220336914
aF136.2209916114807
aF142.73866415023804
aF140.28533697128296
aF143.66683959960938
aF143.92035007476807
aF134.184730052948
aF133.35877656936646
aF134.2297077178955
aF133.85353088378906
aF135.89797019958496
aF134.00890827178955
aF127.97372341156006
aF134.2828631401062
aF134.09477472305298
aF134.47504043579102
aF133.2892656326294
aF123.5659122467041
aF135.1783275604248
aF135.29690504074097
aF135.00250577926636
aF124.1628885269165
aF143.98986101150513
aF132.77406692504883
aF118.8841462135315
aF120.59738636016846
aF119.80823278427124
aF121.95489406585693
aF121.33747339248657
aF116.60255193710327
aF115.52308797836304
aF124.6617317199707
aF144.0593719482422
aF113.72398138046265
aF119.67329978942871
aF135.10881662368774
aF119.58743333816528
aF133.21975469589233
aF125.38137435913086
aF133.27291011810303
aF123.75400066375732
aF135.57085990905762
aF127.78563499450684
aF124.90297555923462
aF122.79311418533325
aF116.41446352005005
aF134.90437269210815
aF121.21480703353882
aF133.76766443252563
aF130.95451593399048
aF139.17316198349
aF124.99293088912964
aF133.15433263778687
aF130.97496032714844
aF132.6391339302063
aF135.7793927192688
aF134.06206369400024
aF133.583664894104
aF134.8307728767395
aF133.7349534034729
aF134.21335220336914
aF144.23519372940063
aF135.07201671600342
aF105.79973459243774
aF134.7326397895813
aF133.66953134536743
aF133.8412642478943
aF133.77175331115723
aF108.59243869781494
aF133.51006507873535
aF134.25015211105347
aF134.25015211105347
aF134.09886360168457
aF133.90668630599976
aF135.00250577926636
aF134.6794843673706
aF133.6327314376831
aF133.65317583084106
aF134.59361791610718
aF139.78649377822876
aF135.21103858947754
aF134.5772624015808
aF136.08605861663818
aF134.59361791610718
aF133.77175331115723
aF134.00890827178955
aF135.70988178253174
aF134.04570817947388
aF133.7349534034729
aF134.3360185623169
aF133.66544246673584
aF134.52410697937012
aF135.50134897232056
aF134.50775146484375
aF135.57085990905762
aF133.9393973350525
aF134.1274857521057
aF133.82081985473633
aF134.59361791610718
aF134.04570817947388
aF133.85353088378906
aF134.4382405281067
aF135.60765981674194
aF134.26650762557983
aF134.11113023757935
aF133.8903307914734
aF134.49139595031738
aF134.92072820663452
aF133.6817979812622
aF135.10881662368774
aF134.7285509109497
aF134.4873070716858
aF133.784019947052
aF134.81850624084473
aF133.8412642478943
aF133.71859788894653
aF133.7881088256836
aF134.25015211105347
aF134.14793014526367
aF133.82081985473633
aF133.46099853515625
aF136.10241413116455
aF134.6794843673706
aF133.92304182052612
aF133.80446434020996
aF133.77175331115723
aF136.01654767990112
aF133.64908695220947
aF134.11113023757935
aF134.52410697937012
aF133.7881088256836
aF133.66953134536743
aF133.61637592315674
aF134.91663932800293
aF134.96979475021362
aF133.86988639831543
aF133.80446434020996
aF133.44464302062988
aF134.66312885284424
aF133.25655460357666
aF133.76766443252563
aF134.26650762557983
a(lp1
F126.89425945281982
aF132.22615718841553
aF125.18101930618286
aF126.39541625976562
aF125.9129285812378
aF132.091224193573
aF125.48768520355225
aF125.04199743270874
aF125.93337297439575
aF125.19737482070923
aF132.0380687713623
aF132.692289352417
aF126.65301561355591
aF125.96608400344849
aF126.34634971618652
aF125.86386203765869
aF108.62923860549927
aF131.6946029663086
aF132.41424560546875
aF132.50420093536377
aF131.81318044662476
aF133.42828750610352
aF125.05835294723511
aF132.5369119644165
aF132.26295709609985
aF124.6617317199707
aF132.51646757125854
aF131.71095848083496
aF132.12393522262573
aF124.95613098144531
aF132.20980167388916
aF125.14421939849854
aF132.20980167388916
aF124.95613098144531
aF132.2425127029419
aF132.6391339302063
aF133.1379771232605
aF132.5859785079956
aF133.06846618652344
aF132.17709064483643
aF132.52055644989014
aF133.25655460357666
aF132.22615718841553
aF131.91949129104614
aF125.86386203765869
aF122.86262512207031
aF124.81710910797119
aF107.77057409286499
aF132.60233402252197
aF126.28910541534424
aF132.70864486694336
aF132.10349082946777
aF133.35877656936646
aF124.09746646881104
aF125.58990716934204
aF125.56946277618408
aF125.7084846496582
aF132.15664625167847
aF124.73124265670776
aF127.2540807723999
aF125.3118634223938
aF125.12377500534058
aF123.99524450302124
aF125.58990716934204
aF124.80075359344482
aF123.70084524154663
aF124.2160439491272
aF124.69853162765503
aF124.62902069091797
aF125.810706615448
aF123.87666702270508
aF124.1669774055481
aF124.07702207565308
aF124.15062189102173
aF125.88021755218506
aF124.55950975418091
aF124.38777685165405
aF124.44093227386475
aF124.2651104927063
aF124.23648834228516
aF124.95204210281372
aF124.69444274902344
aF124.2160439491272
aF125.23008584976196
aF124.02795553207397
aF214.0323519706726
aF124.09746646881104
aF123.78671169281006
aF124.93977546691895
aF123.80715608596802
aF124.35506582260132
aF123.1202244758606
aF124.98884201049805
aF124.6126651763916
aF127.46261358261108
aF124.25284385681152
aF124.47364330291748
aF124.2160439491272
aF124.1138219833374
aF124.23239946365356
aF123.94208908081055
aF124.76804256439209
aF124.26919937133789
aF124.67808723449707
aF124.50635433197021
aF123.717200756073
aF124.62902069091797
aF123.80715608596802
aF126.39541625976562
aF124.23648834228516
aF123.72128963470459
aF125.60626268386841
aF125.1115083694458
aF124.0647554397583
aF125.69212913513184
aF124.01160001754761
aF124.22013282775879
aF123.72128963470459
aF124.62902069091797
aF125.45497417449951
aF124.09337759017944
aF125.53675174713135
aF131.67824745178223
aF125.09106397628784
aF125.31595230102539
aF126.49763822555542
aF125.39772987365723
aF125.79435110092163
aF124.09746646881104
aF125.74119567871094
aF127.23363637924194
aF124.88662004470825
aF125.43452978134155
aF124.13017749786377
aF128.21496725082397
aF127.01283693313599
aF124.04839992523193
aF131.76411390304565
aF127.13550329208374
aF124.42048788070679
aF124.88662004470825
aF125.07470846176147
aF124.74759817123413
aF125.55310726165771
aF124.1669774055481
aF123.80715608596802
aF124.02795553207397
aF124.42457675933838
aF124.25284385681152
aF125.62261819839478
aF124.39186573028564
aF125.38546323776245
aF124.33462142944336
aF124.57995414733887
aF124.59222078323364
aF124.62902069091797
aF124.5104432106018
aF124.1138219833374
aF125.60626268386841
aF133.1870436668396
aF123.97888898849487
aF125.64306259155273
aF124.30191040039062
aF124.1138219833374
aF124.28555488586426
aF126.06830596923828
aF126.82474851608276
aF125.09515285491943
aF124.0647554397583
aF125.14421939849854
aF122.82582521438599
aF124.57995414733887
aF124.6658205986023
aF124.09746646881104
aF124.69853162765503
aF125.5571961402893
aF124.87026453018188
aF123.99524450302124
aF123.94208908081055
aF125.48768520355225
aF124.13426637649536
aF125.72892904281616
aF126.51399374008179
aF122.77675867080688
aF122.67453670501709
aF126.03559494018555
aF124.74759817123413
aF123.83986711502075
aF127.06599235534668
aF123.92573356628418
aF131.9358468055725
aF124.95613098144531
aF124.59630966186523
aF125.48768520355225
aF119.50156688690186
aF126.39541625976562
aF125.96608400344849
aF132.99895524978638
aF126.77159309387207
aF124.57586526870728
aF124.55950975418091
aF125.1115083694458
aF123.54955673217773
aF123.80715608596802
aF121.76271677017212
aF132.45104551315308
aF132.7945113182068
aF124.04431104660034
aF124.80075359344482
aF125.65532922744751
aF125.00519752502441
aF124.64537620544434
aF124.68217611312866
aF82.0433497428894
aF126.2563943862915
aF125.99879503250122
aF133.25655460357666
aF125.86386203765869
aF126.48128271102905
aF132.8435778617859
aF125.57355165481567
aF125.209641456604
aF124.85390901565552
aF124.97248649597168
aF124.30191040039062
aF124.73124265670776
aF126.08875036239624
aF132.92944431304932
aF132.4837565422058
aF125.2627968788147
aF125.2627968788147
aF125.43452978134155
aF125.09106397628784
aF125.23008584976196
aF126.06830596923828
aF125.31595230102539
aF125.33230781555176
aF125.39772987365723
aF126.37906074523926
aF125.12377500534058
aF127.8019905090332
aF125.77799558639526
aF126.22368335723877
aF124.40822124481201
aF126.05195045471191
aF126.13781690597534
aF124.7107982635498
aF125.74119567871094
aF125.84750652313232
aF125.09106397628784
aF126.2073278427124
aF124.68217611312866
aF124.69853162765503
aF108.1140398979187
aF107.34533071517944
aF106.22906684875488
aF106.12684488296509
aF124.45728778839111
aF126.00288391113281
aF132.05442428588867
aF125.83115100860596
aF124.68217611312866
aF124.45728778839111
aF124.59222078323364
aF125.67577362060547
aF126.84110403060913
aF126.44857168197632
aF124.01160001754761
aF109.17714834213257
aF109.77412462234497
aF108.88683795928955
aF109.91314649581909
aF108.5106611251831
aF109.6064805984497
aF125.17693042755127
aF126.17052793502808
aF125.10741949081421
aF124.84982013702393
aF124.88662004470825
aF109.45110321044922
aF124.55950975418091
aF127.92056798934937
aF110.23616790771484
aF111.16434335708618
aF110.68594455718994
aF124.5635986328125
aF125.2627968788147
aF125.09106397628784
aF126.97603702545166
aF125.98652839660645
aF112.23154067993164
aF124.62902069091797
aF124.57586526870728
aF124.69853162765503
aF127.3072361946106
aF124.67808723449707
aF124.6617317199707
aF133.49370956420898
aF125.69212913513184
aF112.43598461151123
atp2
.