((lp0
F3078.013789653778
aF5.830740928649902
aF3074.2029547691345
aF5.830740928649902
aF3085.729503631592
aF5.8470964431762695
aF3059.4584584236145
aF5.8470964431762695
aF3070.911407470703
aF5.830740928649902
aF3050.266659259796
aF5.830740928649902
aF3073.998510837555
aF5.8470964431762695
aF3048.8396406173706
aF5.8675408363342285
aF3050.4015922546387
aF5.8470964431762695
aF69.7317361831665
aF67.32747554779053
aF69.37191486358643
aF3060.7587218284607
aF5.8470964431762695
aF3057.3322415351868
aF5.830740928649902
aF3063.759958744049
aF5.793941020965576
aF3063.7272477149963
aF5.8470964431762695
aF66.47289991378784
aF29.824280738830566
aF112.15794086456299
aF3059.662902355194
aF5.8470964431762695
aF3065.031599998474
aF5.830740928649902
aF71.80888652801514
aF73.5221266746521
aF142.63644218444824
aF71.85795307159424
aF3053.1084299087524
aF5.793941020965576
aF3058.6856603622437
aF5.863451957702637
aF66.73049926757812
aF67.6423192024231
aF67.24569797515869
aF3085.938036441803
aF5.814385414123535
aF3060.676944255829
aF5.8470964431762695
aF3075.8671283721924
aF5.814385414123535
aF3075.458240509033
aF5.814385414123535
aF67.84676313400269
aF67.86311864852905
aF67.86311864852905
aF67.89582967758179
aF67.87947416305542
aF68.25565099716187
aF67.89582967758179
aF68.27200651168823
aF68.7340497970581
aF67.86311864852905
aF3063.330626487732
aF5.814385414123535
aF3076.022505760193
aF5.814385414123535
aF3068.527591228485
aF5.814385414123535
aF66.18258953094482
aF67.38471984863281
aF67.41743087768555
aF72.95377254486084
aF3078.1487226486206
aF5.830740928649902
aF69.2369818687439
aF69.21653747558594
aF69.64586973190308
aF69.64586973190308
aF67.92854070663452
aF67.98169612884521
aF68.35787296295166
aF68.37831735610962
aF68.37831735610962
aF68.87307167053223
aF69.66631412506104
aF141.1112904548645
aF3067.979681491852
aF5.798029899597168
aF68.27609539031982
aF68.29245090484619
aF69.96889114379883
aF68.75449419021606
aF70.02204656600952
aF139.54933881759644
aF70.9297776222229
aF69.59271430969238
aF72.16870784759521
aF73.06008338928223
aF70.10791301727295
aF70.90115547180176
aF70.89706659317017
aF3066.282796859741
aF5.798029899597168
aF3072.473359107971
aF5.830740928649902
aF3073.708200454712
aF5.863451957702637
aF66.52605533599854
aF3047.314488887787
aF5.793941020965576
aF67.1434760093689
aF67.55645275115967
aF68.70133876800537
aF68.34560632705688
aF3049.3016839027405
aF5.810296535491943
aF68.25565099716187
aF69.52729225158691
aF69.50684785842896
aF70.36551237106323
aF69.52729225158691
aF69.54364776611328
aF72.94150590896606
aF72.59804010391235
aF69.09795999526978
aF71.24053239822388
aF69.90346908569336
aF70.53724527359009
aF66.71414375305176
aF68.51325035095215
aF3059.8673462867737
aF6.656694412231445
aF3069.300389289856
aF5.8470964431762695
aF3072.0808267593384
aF5.863451957702637
aF3059.765124320984
aF5.830740928649902
aF3063.007605075836
aF5.851185321807861
aF59.063851833343506
aF3070.069098472595
aF5.814385414123535
aF68.70133876800537
aF3085.6804370880127
aF5.810296535491943
aF70.09155750274658
aF68.49689483642578
aF15.349650382995605
aF23.23709726333618
aF25.019848346710205
aF3047.0078229904175
aF5.8675408363342285
aF3030.1820874214172
aF5.830740928649902
aF69.40462589263916
aF3069.79923248291
aF5.830740928649902
aF3030.0594210624695
aF5.830740928649902
aF69.71538066864014
aF69.71538066864014
aF69.69902515411377
aF71.85795307159424
aF3044.7262287139893
aF5.851185321807861
aF68.59911680221558
aF3076.210594177246
aF5.793941020965576
aF3071.80278301239
aF5.830740928649902
aF3082.883644104004
aF5.830740928649902
aF3050.0949263572693
aF5.830740928649902
aF3097.9756951332092
aF5.814385414123535
aF3053.8117170333862
aF5.830740928649902
aF70.19377946853638
aF3090.5502915382385
aF5.834829807281494
aF3083.0880880355835
aF5.798029899597168
aF70.07520198822021
aF3092.128598690033
aF5.830740928649902
aF69.59271430969238
aF70.74168920516968
aF3058.530282974243
aF5.834829807281494
aF3061.5519642829895
aF5.830740928649902
aF3050.1112818717957
aF5.8470964431762695
aF3047.14275598526
aF5.830740928649902
aF3057.2136640548706
aF5.830740928649902
aF73.17866086959839
aF68.58276128768921
aF3073.1112241744995
aF5.810296535491943
aF71.39590978622437
aF70.89706659317017
aF71.36319875717163
aF71.80479764938354
aF67.36427545547485
aF67.43378639221191
aF73.95145893096924
aF3064.43053483963
aF5.798029899597168
aF74.37670230865479
aF74.34399127960205
aF74.79376792907715
aF74.75696802139282
aF74.48301315307617
aF72.31999635696411
aF68.80764961242676
aF3086.93163394928
aF5.798029899597168
aF67.77725219726562
aF66.4933443069458
aF67.36427545547485
aF66.47289991378784
aF66.86543226242065
aF66.83272123336792
aF66.47289991378784
aF66.90223217010498
aF66.86952114105225
aF66.9390320777893
aF66.90223217010498
aF66.85316562652588
aF74.19270277023315
aF3063.330626487732
aF5.814385414123535
aF73.16230535507202
aF3074.6854424476624
aF5.830740928649902
aF71.68622016906738
aF70.41866779327393
aF71.70257568359375
aF69.59680318832397
aF67.94898509979248
aF69.16747093200684
aF72.45901823043823
aF1244.695544242859
aF840.4730916023254
aF3098.7444043159485
aF5.830740928649902
aF67.43378639221191
aF68.29245090484619
aF67.38063097000122
aF66.98809862136841
aF67.07396507263184
aF67.51965284347534
aF3095.612323284149
aF5.814385414123535
aF69.14702653884888
aF68.35787296295166
aF3075.952994823456
aF5.830740928649902
aF66.98809862136841
aF67.84676313400269
aF67.00445413589478
aF67.45014190673828
aF67.8426742553711
aF68.80764961242676
aF3046.5948462486267
aF5.793941020965576
aF3075.4255294799805
aF5.814385414123535
aF69.54364776611328
aF67.34791994094849
aF3087.0870113372803
aF5.830740928649902
aF3062.099874019623
aF5.830740928649902
aF3065.6285762786865
aF5.793941020965576
aF69.01209354400635
aF69.04480457305908
aF69.08160448074341
aF69.04480457305908
aF69.02844905853271
aF68.99164915084839
aF69.01209354400635
aF69.02844905853271
aF69.04480457305908
aF69.06116008758545
aF68.99573802947998
aF69.04480457305908
aF69.00800466537476
aF69.47413682937622
aF69.04480457305908
aF68.99164915084839
aF69.45778131484985
a(lp1
F69.80124711990356
aF52.08413600921631
aF70.24693489074707
aF53.35577726364136
aF69.81760263442993
aF52.41124629974365
aF69.40871477127075
aF52.08413600921631
aF69.39235925674438
aF52.942800521850586
aF69.35555934906006
aF52.030980587005615
aF3109.6698880195618
aF54.2798638343811
aF3113.2885456085205
aF53.02457809448242
aF69.45778131484985
aF71.20373249053955
aF3110.119664669037
aF67.57280826568604
aF3132.1709871292114
aF47.9993462562561
aF3099.2268919944763
aF67.51965284347534
aF53.3353328704834
aF67.94898509979248
aF53.40484380722046
aF67.34791994094849
aF51.31542682647705
aF3126.7327785491943
aF25.69042444229126
aF3118.8289761543274
aF66.62827730178833
aF52.99186706542969
aF69.58044767379761
aF53.40893268585205
aF70.05884647369385
aF69.15111541748047
aF69.21653747558594
aF68.75449419021606
aF3094.340682029724
aF69.26969289779663
aF68.39467287063599
aF54.81141805648804
aF67.47058629989624
aF67.10667610168457
aF67.07396507263184
aF67.0412540435791
aF54.29621934890747
aF67.46649742126465
aF55.923593044281006
aF3138.606882095337
aF3125.7596254348755
aF68.17387342453003
aF73.4199047088623
aF72.50808477401733
aF72.56124019622803
aF72.11555242538452
aF72.9742169380188
aF71.25688791275024
aF70.38595676422119
aF69.97298002243042
aF70.76213359832764
aF70.36551237106323
aF73.89830350875854
aF3138.774526119232
aF25.911223888397217
aF3116.310226917267
aF57.84536600112915
aF3099.091958999634
aF53.13088893890381
aF3118.640887737274
aF64.36303853988647
aF66.73049926757812
aF3111.3872170448303
aF3105.76092004776
aF51.45035982131958
aF67.20889806747437
aF68.51325035095215
aF68.12071800231934
aF68.49689483642578
aF67.20889806747437
aF68.49689483642578
aF67.67503023147583
aF68.05120706558228
aF68.49689483642578
aF66.85316562652588
aF67.31112003326416
aF3105.159854888916
aF64.9477481842041
aF53.576576709747314
aF65.79005718231201
aF65.79005718231201
aF65.80232381820679
aF65.76961278915405
aF67.0903205871582
aF66.67734384536743
aF67.00445413589478
aF65.80641269683838
aF66.0435676574707
aF67.1393871307373
aF65.76961278915405
aF65.80641269683838
aF66.11307859420776
aF3089.1764283180237
aF32.27351903915405
aF67.15983152389526
aF3103.3607482910156
aF67.0412540435791
aF52.47666835784912
aF69.51093673706055
aF68.72178316116333
aF67.0412540435791
aF65.80232381820679
aF65.80641269683838
aF67.71183013916016
aF3110.651218891144
aF67.50329732894897
aF66.9390320777893
aF68.64818334579468
aF68.22293996810913
aF68.22293996810913
aF68.66862773895264
aF68.2392954826355
aF67.41334199905396
aF3129.5663714408875
aF65.20534753799438
aF67.91627407073975
aF66.5424108505249
aF66.52605533599854
aF69.11431550979614
aF137.8688097000122
aF3092.5211310386658
aF3120.305061340332
aF67.55236387252808
aF3115.5742287635803
aF66.61192178726196
aF3106.1043858528137
aF52.6852011680603
aF68.35787296295166
aF3128.278374671936
aF69.98933553695679
aF69.64586973190308
aF3118.7103986740112
aF68.52960586547852
aF138.3144974708557
aF67.45014190673828
aF72.09510803222656
aF3118.914842605591
aF67.55236387252808
aF3093.3797955513
aF15.774893760681152
aF22.501099109649658
aF3101.2181758880615
aF65.76961278915405
aF66.67734384536743
aF66.18258953094482
aF67.50329732894897
aF3094.581925868988
aF64.53886032104492
aF3091.167712211609
aF69.08160448074341
aF3098.728048801422
aF66.50561094284058
aF70.26329040527344
aF70.2305793762207
aF3102.726972103119
aF65.70419073104858
aF68.06756258010864
aF3124.761939048767
aF3106.464207172394
aF51.87969207763672
aF3133.88831615448
aF51.896047592163086
aF68.64818334579468
aF52.7874231338501
aF68.42738389968872
aF123.03435802459717
aF3086.7926120758057
aF65.29121398925781
aF69.94026899337769
aF69.47413682937622
aF70.24693489074707
aF69.80124711990356
aF3095.0603246688843
aF66.23574495315552
aF53.86688709259033
aF3119.552707672119
aF71.58399820327759
aF3099.177825450897
aF67.79360771179199
aF3100.3963112831116
aF70.41457891464233
aF53.59293222427368
aF3106.721806526184
aF66.38703346252441
aF3136.852753162384
aF64.58792686462402
aF68.43147277832031
aF66.28481149673462
aF3108.917534351349
aF51.981914043426514
aF3099.190092086792
aF69.45369243621826
aF3090.566647052765
aF3112.724280357361
aF66.91858768463135
aF69.49049234390259
aF70.41866779327393
aF66.98809862136841
aF69.1347599029541
aF66.62827730178833
aF66.23165607452393
aF66.28481149673462
aF53.40484380722046
aF67.53600835800171
aF67.0903205871582
aF67.55645275115967
aF67.56871938705444
aF67.94898509979248
aF66.25210046768188
aF3091.83828830719
aF67.12303161621094
aF66.21530055999756
aF66.16214513778687
aF66.14987850189209
aF66.21530055999756
aF66.19894504547119
aF66.19894504547119
aF66.11307859420776
aF66.21530055999756
aF66.19894504547119
aF66.21530055999756
aF66.18258953094482
aF66.18258953094482
aF66.11307859420776
aF66.57512187957764
aF3114.0286326408386
aF67.34791994094849
aF3094.062638282776
aF65.82276821136475
aF52.170002460479736
aF66.21530055999756
aF67.94898509979248
aF68.42738389968872
aF68.80764961242676
aF68.37422847747803
aF67.05760955810547
aF1978.6615252494812
aF345.7269549369812
aF312.16543912887573
aF66.18258953094482
aF66.1457896232605
aF66.5955662727356
aF66.61192178726196
aF67.45014190673828
aF67.94898509979248
aF69.2328929901123
aF3165.393126010895
aF65.82276821136475
aF51.777470111846924
aF66.61192178726196
aF65.83912372589111
aF3111.8860602378845
aF3111.8165493011475
aF65.76961278915405
aF67.02080965042114
aF66.1457896232605
aF65.71645736694336
aF67.40107536315918
aF67.91218519210815
aF67.5400972366333
aF3108.385980129242
aF67.12712049484253
aF66.74685478210449
aF3080.0745844841003
aF69.13067102432251
aF67.84676313400269
aF62.886953353881836
aF3107.752203941345
aF51.413559913635254
aF67.86311864852905
aF53.13088893890381
aF65.73690176010132
aF66.16623401641846
aF65.72054624557495
aF65.72054624557495
aF66.12943410873413
aF65.73690176010132
aF65.8922791481018
aF65.71645736694336
aF66.16623401641846
aF65.73690176010132
aF66.97174310684204
aF66.55876636505127
aF66.0967230796814
aF65.71645736694336
aF66.12943410873413
aF66.55876636505127
aF66.62418842315674
atp2
.